-----BEGIN PRIVATE KEY-----
MIIEvQIBADANBgkqhkiG9w0BAQEFAASCBKcwggSjAgEAAoIBAQDUo6a2DFxgKvYA
Aa222QdFPWhknf6D7h8HWWKD7lGI8CtZWQOF/wzyoheaDNa5ZatUjsXVnT5uMFuG
JOxkEB9nrVNudoAxr4tToUbEf5kpjb/yEYkh8tjeg/TYhjzljlMp3O0J7oQsvn3j
h6jc5rVgqxhyInMDvKb1MpqbYLpP9kPaxOyv2zxeL3C7SHSMCgIPZeZVzP5vxnrt
SQgqfyfzF43vqxfCZt+vf4FcTPGvM6Qw8U77elU7RGX+U+kf1cDf9Nqm+KskEoDB
h/wlOWRIdl7iadX890bewRYSemxSlk8u5mPvfL/D+IpLQ/afT5EF6sxC58RkkG9P
dwRznw/JAgMBAAECggEADkaueqp5yTsZKQbz0sLfahalW5v/6nuiOawWoSTu9HKr
dmQziFuHUwLu8rjJ8ciRqCutvJnCB0PX4Tm5ZT5v3VYVs+Tg1nUitYquZaLrdY6+
xFHJEy5qwQW6+o6IqCDWFIlwoKoS1a40ZYJGJA6ZPtQ93+vQLQANdYjgOG5WE+gl
cbVJ7COJoIS81LOhrawQMfxLC8pMGOxUm8ZcJV47Po6JA5wr/iyl1T33lZu0hg+B
oxZOHgCvBMB+Ezs5v9+VJcHVm693eE6t/zEk3XUzBfQ2mjoFWv9pi0VgZN51+vBr
JruE3b+duUTQQG/japugW6dqRCxV4YJlbXx6gczHAQKBgQDrAq1cjQkIWlAmwQIu
xGTVxFh2Nx2TZnxEIylF/WKpYWgsR69KF20uTf7LVjjrwT6B7p09xECpFmGdWB0+
2Vkqu4hZqUySjD1yB9YnLyMllAAyl9o4YCCkvN2I5liRFV3K5Y+kgxWLNs4xWLqB
xTUIK/PtBafunNx4Zk838cn9BQKBgQDnoXmQDY7Xnn+PPyKG3h5Qtk+0iW3LqdjJ
Zs89TgUvoPEJGFJmqnj+iU+Ot7DB3tQaqTJ8BQalT7xzuEpjz7ffX5iGuH1d9X8M
DnUWNM2bJZyKZ2IGg20tJazhSfzrctdZDHERvDNWemZNeJRnNWNwOWVORiyhxkpe
P559euRi9QKBgD8Hm8lrxhVoa4DJWTWD1OuEWplyFMuYvBFmQMaVu+Vjy5W8sCW1
/MFjh8evW1rXnFUq0x9iyFjROOMDY+ycTI7qdxpdDr1rQXuY4HXn7YxBkn//PDbM
iVTFlsEFzpEy4tHtGcZspdWNoGWZv4PYiW2kpCpYzv5vMa5U+kAt6BelAoGAMOBk
613BB4SdfBehbH4QPY3K0dix/2jOouj7z/7Xn05Brl6gfKN6NpO44u+l77LaZOnR
ClRxK47gwDZiFB+vuAXPBJaHdb0o2t1uHYp03EkaeCYKjD9NWVp62WsoYHJyOIsk
jM5+sr/POIe6IPEmE3c5BkROhLB33t1jzyyQZsUCgYEAy/r54dkwaY7qEOVcOJo8
onBaoiPbV7NzET8+h+573Sx6AmLqGEp1okbTNlzo7etuijBKIzsUJ7o6aewdE7io
IcUTfjNAr4JBgeeIoW3jNpdZO208YMjPgfULuSgjHyzTpRaJHBXWhdOpmTs1fiDu
LKpq43xtw1Dn01cVfGWQVT8=
-----END PRIVATE KEY-----
Certificate:
    Data:
        Version: 3 (0x2)
        Serial Number:
            8d:e2:c4:c4:47:6f:2b:1b
    Signature Algorithm: sha256WithRSAEncryption
        Issuer: C=XY, L=Castle Anthrax, O=Python Software Foundation CA, CN=our-ca-server
        Validity
            Not Before: May  2 09:30:14 2017 GMT
            Not After : Mar 11 09:30:14 2027 GMT
        Subject: C=XY, L=Castle Anthrax, O=Python Software Foundation, CN=fakehostname
        Subject Public Key Info:
            Public Key Algorithm: rsaEncryption
                Public-Key: (2048 bit)
                Modulus:
                    00:d4:a3:a6:b6:0c:5c:60:2a:f6:00:01:ad:b6:d9:
                    07:45:3d:68:64:9d:fe:83:ee:1f:07:59:62:83:ee:
                    51:88:f0:2b:59:59:03:85:ff:0c:f2:a2:17:9a:0c:
                    d6:b9:65:ab:54:8e:c5:d5:9d:3e:6e:30:5b:86:24:
                    ec:64:10:1f:67:ad:53:6e:76:80:31:af:8b:53:a1:
                    46:c4:7f:99:29:8d:bf:f2:11:89:21:f2:d8:de:83:
                    f4:d8:86:3c:e5:8e:53:29:dc:ed:09:ee:84:2c:be:
                    7d:e3:87:a8:dc:e6:b5:60:ab:18:72:22:73:03:bc:
                    a6:f5:32:9a:9b:60:ba:4f:f6:43:da:c4:ec:af:db:
                    3c:5e:2f:70:bb:48:74:8c:0a:02:0f:65:e6:55:cc:
                    fe:6f:c6:7a:ed:49:08:2a:7f:27:f3:17:8d:ef:ab:
                    17:c2:66:df:af:7f:81:5c:4c:f1:af:33:a4:30:f1:
                    4e:fb:7a:55:3b:44:65:fe:53:e9:1f:d5:c0:df:f4:
                    da:a6:f8:ab:24:12:80:c1:87:fc:25:39:64:48:76:
                    5e:e2:69:d5:fc:f7:46:de:c1:16:12:7a:6c:52:96:
                    4f:2e:e6:63:ef:7c:bf:c3:f8:8a:4b:43:f6:9f:4f:
                    91:05:ea:cc:42:e7:c4:64:90:6f:4f:77:04:73:9f:
                    0f:c9
                Exponent: 65537 (0x10001)
        X509v3 extensions:
            X509v3 Subject Alternative Name: 
                DNS:fakehostname
            X509v3 Key Usage: critical
                Digital Signature, Key Encipherment
            X509v3 Extended Key Usage: 
                TLS Web Server Authentication, TLS Web Client Authentication
            X509v3 Subject Key Identifier: 
                C3:49:A3:95:14:22:73:BB:D9:00:55:FF:53:60:EF:C3:F9:E4:80:7E
            X509v3 Authority Key Identifier: 
                keyid:1A:0D:56:38:16:4C:19:2F:83:5B:CA:F6:11:5F:08:1F:F6:C1:A6:80

            X509v3 Basic Constraints: 
                CA:FALSE
    Signature Algorithm: sha256WithRSAEncryption
         11:79:c8:bd:c0:7a:15:a1:06:62:57:f8:ae:10:66:63:bd:23:
         9c:36:b4:4d:86:eb:74:21:c6:0b:09:88:be:05:de:25:a8:3d:
         49:0e:23:50:b7:08:d1:c9:24:50:5d:d4:70:43:e7:96:75:21:
         08:d1:aa:6e:a8:55:d7:07:08:33:c9:1e:02:04:70:f3:8d:c8:
         39:1c:01:e8:cd:48:cb:00:85:9c:65:b1:fe:02:29:d3:bc:85:
         71:84:27:a9:c3:35:09:67:e3:32:a1:55:8c:c9:20:77:2f:2f:
         c4:cb:af:cf:ac:e5:40:c2:77:71:31:15:e5:79:1e:6f:ee:a7:
         63:74:bd:f5:36:fe:7c:20:4b:59:ad:53:93:66:df:07:75:bf:
         71:ef:68:bd:7c:d3:73:22:84:a7:90:1c:bd:65:92:83:19:9d:
         e4:d1:47:e8:e4:11:72:ec:d3:2e:84:df:ea:57:a2:02:df:29:
         6d:9d:3b:69:c7:43:ab:45:f4:96:c6:cb:a3:e4:3c:d7:fc:e8:
         e7:3b:6c:bf:2b:d2:53:1f:fa:56:ca:72:ac:46:29:e5:52:13:
         8f:6c:fc:81:03:f2:aa:56:78:3e:22:98:f9:25:bb:99:39:d7:
         9b:b6:d0:54:37:42:fb:4a:31:ae:77:32:ce:97:0b:c4:3f:ca:
         c6:60:49:d3
-----BEGIN CERTIFICATE-----
MIID4jCCAsqgAwIBAgIJAI3ixMRHbysbMA0GCSqGSIb3DQEBCwUAMGYxCzAJBgNV
BAYTAlhZMRcwFQYDVQQHDA5DYXN0bGUgQW50aHJheDEmMCQGA1UECgwdUHl0aG9u
IFNvZnR3YXJlIEZvdW5kYXRpb24gQ0ExFjAUBgNVBAMMDW91ci1jYS1zZXJ2ZXIw
HhcNMTcwNTAyMDkzMDE0WhcNMjcwMzExMDkzMDE0WjBiMQswCQYDVQQGEwJYWTEX
MBUGA1UEBwwOQ2FzdGxlIEFudGhyYXgxIzAhBgNVBAoMGlB5dGhvbiBTb2Z0d2Fy
ZSBGb3VuZGF0aW9uMRUwEwYDVQQDDAxmYWtlaG9zdG5hbWUwggEiMA0GCSqGSIb3
DQEBAQUAA4IBDwAwggEKAoIBAQDUo6a2DFxgKvYAAa222QdFPWhknf6D7h8HWWKD
7lGI8CtZWQOF/wzyoheaDNa5ZatUjsXVnT5uMFuGJOxkEB9nrVNudoAxr4tToUbE
f5kpjb/yEYkh8tjeg/TYhjzljlMp3O0J7oQsvn3jh6jc5rVgqxhyInMDvKb1Mpqb
YLpP9kPaxOyv2zxeL3C7SHSMCgIPZeZVzP5vxnrtSQgqfyfzF43vqxfCZt+vf4Fc
TPGvM6Qw8U77elU7RGX+U+kf1cDf9Nqm+KskEoDBh/wlOWRIdl7iadX890bewRYS
emxSlk8u5mPvfL/D+IpLQ/afT5EF6sxC58RkkG9PdwRznw/JAgMBAAGjgZYwgZMw
FwYDVR0RBBAwDoIMZmFrZWhvc3RuYW1lMA4GA1UdDwEB/wQEAwIFoDAdBgNVHSUE
FjAUBggrBgEFBQcDAQYIKwYBBQUHAwIwHQYDVR0OBBYEFMNJo5UUInO72QBV/1Ng
78P55IB+MB8GA1UdIwQYMBaAFBoNVjgWTBkvg1vK9hFfCB/2waaAMAkGA1UdEwQC
MAAwDQYJKoZIhvcNAQELBQADggEBABF5yL3AehWhBmJX+K4QZmO9I5w2tE2G63Qh
xgsJiL4F3iWoPUkOI1C3CNHJJFBd1HBD55Z1IQjRqm6oVdcHCDPJHgIEcPONyDkc
AejNSMsAhZxlsf4CKdO8hXGEJ6nDNQln4zKhVYzJIHcvL8TLr8+s5UDCd3ExFeV5
Hm/up2N0vfU2/nwgS1mtU5Nm3wd1v3HvaL1803MihKeQHL1lkoMZneTRR+jkEXLs
0y6E3+pXogLfKW2dO2nHQ6tF9JbGy6PkPNf86Oc7bL8r0lMf+lbKcqxGKeVSE49s
/IED8qpWeD4imPklu5k515u20FQ3QvtKMa53Ms6XC8Q/ysZgSdM=
-----END CERTIFICATE-----
