-----BEGIN PRIVATE KEY-----
MIIEvQIBADANBgkqhkiG9w0BAQEFAASCBKcwggSjAgEAAoIBAQDP2ysW8SJ33X9z
j7+Iketj9Z0FVh474iHm8OeId3/ddR8T3Tk9rmC3HM9HwPGoPQPbxYIVucMPzl4o
+VxLOccM8nREJxMMnH8qccWQxPuChltJUneaARW1VkKTgq2YlC87NR5QfrdCssYJ
T+vsq+ae1LrRN5VQRX53R9eq8Zs1dVLqi6hNfu1xHAfIGsjT0obJZMlioaNPQVmR
4Q+yWrLh5hzC8ruhUbzbylV46wkbe5encSczkUJauram6njMHzDU14wUVaCY1V7Y
FK05Fbo75ZXf96edQ0efUW0T14AMdthLXXn46527t/95y0JwZUzQSv+RnwM7luMZ
2y1glwfhAgMBAAECggEBAMD83HArqXYjeP+h+xLhcO3ZkVXwFJhDKHkVOdQyJ81F
vnoiD9CeRHwfyrDziyxKond+VX64gEz/rdtbU38hARibUKoqoXw3HbcZ9Xap/l+9
Qaq9YADkevRoR95QGcAt7gCKHEBetua9uDPTOdj/7luQZnh0pDTooTg8wxibxSEG
xkoGpqt52iRzD1R2DS1Cr60WI8UPAm9an3UFYh7Bx80otN6+Zbt3pvO8/OCEcd/t
Te85zQi421/mPW9HGRGpfZa0SVoHrFPsgAzxlZGiyIFs18iR2qSU9NUI8K/0gW9p
oaL37Lnq3eqQEPLp+eqTVhgBFmJZHEZvUl2crxv8fTECgYEA7f7i2Xte4bGedvVQ
kbv3GBKUg4p1NTg3ANJoJOLmCENtB3oGUpBtb9OAf/uOrILa/Ba0X8KmLAt7otTs
3hy5MiXZaSgTc0TQ1cMDsevxZ9gLI5Oiha1zq5TIFg688fAiSGIvc19zkEd2jMT5
y6Vr3T9TUBOL4TW+/5jFzu6nQJUCgYEA35SWuhZmjPkedctosxSTf8d6kvbv4yTD
i6scR5tIkJ+XBnPrVelVrnN/xWMJDwtkoItds28XxmInppNbVWPzElniBRfMTM7E
DYVj1ba/d8C0DSCgSspZHjbUhclyG7GZZitZ+YyztvML0l9ZvxpQz50fBUYuTMpP
UUbvupZBGx0CgYABSCsuorR7ILrKxz1823dUQN1d7AP/mmLpdTisYjB9AOf4b1bT
YQXF4WzCw7ccBMRrMTAdh+3fNNygnub7t0nkFEIch+O67jb1v8woTC4LsiU1Ntlc
QPfrh6ygOcoYv4Nfwm+g/nWf5FKmJXV2/FgdY/bt6n0JZIG33LnMCIsMFQKBgCk2
6eYZ1QOttJjAS2efpmUKr6TB0ozLrSRlAYyNqn3GfX+aBMrMfZfwAKCxVe0pC36w
0jAOjZJra6XASjjeeONsIEcSEP4jq25WpYWy726y3j4BQqsmy/DO6LRU4y0Jux5j
ZW2kK0jRWt+H5jJdNoJfE2XUfxp2vNJdwjliE1RdAoGAdXAK6PDbYGJ88oQl/vzu
1Ei7Ig+Qv8tFLMwYe0teAy8ZWRP51Gfkfj3kW8gYl8RavpfMuV6sdtaiGbWh42P9
dY8DskjNrqU4hj+6Y5eMSkISm38VgqTaqTCbTVXVi1UXaPsG7xuhE3YLNJNukeJw
nGX/YF2Ea5A87e1THzImRzg=
-----END PRIVATE KEY-----
Certificate:
    Data:
        Version: 3 (0x2)
        Serial Number:
            8d:e2:c4:c4:47:6f:2b:1a
    Signature Algorithm: sha256WithRSAEncryption
        Issuer: C=XY, L=Castle Anthrax, O=Python Software Foundation CA, CN=our-ca-server
        Validity
            Not Before: May  2 09:30:14 2017 GMT
            Not After : Mar 11 09:30:14 2027 GMT
        Subject: C=XY, L=Castle Anthrax, O=Python Software Foundation, CN=localhost
        Subject Public Key Info:
            Public Key Algorithm: rsaEncryption
                Public-Key: (2048 bit)
                Modulus:
                    00:cf:db:2b:16:f1:22:77:dd:7f:73:8f:bf:88:91:
                    eb:63:f5:9d:05:56:1e:3b:e2:21:e6:f0:e7:88:77:
                    7f:dd:75:1f:13:dd:39:3d:ae:60:b7:1c:cf:47:c0:
                    f1:a8:3d:03:db:c5:82:15:b9:c3:0f:ce:5e:28:f9:
                    5c:4b:39:c7:0c:f2:74:44:27:13:0c:9c:7f:2a:71:
                    c5:90:c4:fb:82:86:5b:49:52:77:9a:01:15:b5:56:
                    42:93:82:ad:98:94:2f:3b:35:1e:50:7e:b7:42:b2:
                    c6:09:4f:eb:ec:ab:e6:9e:d4:ba:d1:37:95:50:45:
                    7e:77:47:d7:aa:f1:9b:35:75:52:ea:8b:a8:4d:7e:
                    ed:71:1c:07:c8:1a:c8:d3:d2:86:c9:64:c9:62:a1:
                    a3:4f:41:59:91:e1:0f:b2:5a:b2:e1:e6:1c:c2:f2:
                    bb:a1:51:bc:db:ca:55:78:eb:09:1b:7b:97:a7:71:
                    27:33:91:42:5a:ba:b6:a6:ea:78:cc:1f:30:d4:d7:
                    8c:14:55:a0:98:d5:5e:d8:14:ad:39:15:ba:3b:e5:
                    95:df:f7:a7:9d:43:47:9f:51:6d:13:d7:80:0c:76:
                    d8:4b:5d:79:f8:eb:9d:bb:b7:ff:79:cb:42:70:65:
                    4c:d0:4a:ff:91:9f:03:3b:96:e3:19:db:2d:60:97:
                    07:e1
                Exponent: 65537 (0x10001)
        X509v3 extensions:
            X509v3 Subject Alternative Name: 
                DNS:localhost
            X509v3 Key Usage: critical
                Digital Signature, Key Encipherment
            X509v3 Extended Key Usage: 
                TLS Web Server Authentication, TLS Web Client Authentication
            X509v3 Subject Key Identifier: 
                D2:5C:05:E1:96:32:8D:0C:99:BC:51:E0:11:91:AF:41:BA:9E:6F:4E
            X509v3 Authority Key Identifier: 
                keyid:1A:0D:56:38:16:4C:19:2F:83:5B:CA:F6:11:5F:08:1F:F6:C1:A6:80

            X509v3 Basic Constraints: 
                CA:FALSE
    Signature Algorithm: sha256WithRSAEncryption
         9c:fc:f5:79:58:76:bb:06:a0:92:07:51:1c:28:1c:d6:cf:8b:
         50:11:e7:87:3d:da:45:82:d9:73:d3:45:65:04:ec:c6:98:44:
         1e:ea:af:c5:91:5d:32:b2:ee:dc:c0:a3:49:d8:1a:5f:1f:8a:
         31:52:64:8b:f6:73:cf:0a:3d:ae:19:67:1c:4b:5e:96:15:82:
         ee:7e:67:c8:10:a1:3e:6a:17:ee:35:32:7e:f7:67:d5:7b:55:
         51:26:e1:b7:fc:6a:44:73:f3:02:9c:cb:8e:d0:0d:53:a4:02:
         ec:a5:89:11:0c:60:da:6d:ff:83:4b:8a:3e:b1:cd:0a:14:db:
         97:67:8c:29:0d:55:86:11:81:f5:33:7b:50:ad:64:81:99:6c:
         bf:f3:87:98:6e:33:06:75:a3:6f:07:77:92:3d:2e:c9:b1:5d:
         0a:29:31:b2:d2:05:1b:a1:84:65:06:da:97:4c:a4:09:e1:08:
         8a:3f:88:13:e4:12:01:05:8a:2a:40:5b:34:f8:51:b7:82:eb:
         97:a6:91:d6:9b:98:91:66:f9:b4:17:75:73:ab:a4:02:ef:eb:
         3e:91:c2:eb:be:ad:9c:ed:d2:28:d1:75:a0:a1:a8:ad:2e:41:
         5f:cd:5a:ba:8a:be:c5:18:b1:d4:52:a3:78:7e:d2:ed:5d:15:
         01:31:7a:a7
-----BEGIN CERTIFICATE-----
MIID3DCCAsSgAwIBAgIJAI3ixMRHbysaMA0GCSqGSIb3DQEBCwUAMGYxCzAJBgNV
BAYTAlhZMRcwFQYDVQQHDA5DYXN0bGUgQW50aHJheDEmMCQGA1UECgwdUHl0aG9u
IFNvZnR3YXJlIEZvdW5kYXRpb24gQ0ExFjAUBgNVBAMMDW91ci1jYS1zZXJ2ZXIw
HhcNMTcwNTAyMDkzMDE0WhcNMjcwMzExMDkzMDE0WjBfMQswCQYDVQQGEwJYWTEX
MBUGA1UEBwwOQ2FzdGxlIEFudGhyYXgxIzAhBgNVBAoMGlB5dGhvbiBTb2Z0d2Fy
ZSBGb3VuZGF0aW9uMRIwEAYDVQQDDAlsb2NhbGhvc3QwggEiMA0GCSqGSIb3DQEB
AQUAA4IBDwAwggEKAoIBAQDP2ysW8SJ33X9zj7+Iketj9Z0FVh474iHm8OeId3/d
dR8T3Tk9rmC3HM9HwPGoPQPbxYIVucMPzl4o+VxLOccM8nREJxMMnH8qccWQxPuC
hltJUneaARW1VkKTgq2YlC87NR5QfrdCssYJT+vsq+ae1LrRN5VQRX53R9eq8Zs1
dVLqi6hNfu1xHAfIGsjT0obJZMlioaNPQVmR4Q+yWrLh5hzC8ruhUbzbylV46wkb
e5encSczkUJauram6njMHzDU14wUVaCY1V7YFK05Fbo75ZXf96edQ0efUW0T14AM
dthLXXn46527t/95y0JwZUzQSv+RnwM7luMZ2y1glwfhAgMBAAGjgZMwgZAwFAYD
VR0RBA0wC4IJbG9jYWxob3N0MA4GA1UdDwEB/wQEAwIFoDAdBgNVHSUEFjAUBggr
BgEFBQcDAQYIKwYBBQUHAwIwHQYDVR0OBBYEFNJcBeGWMo0MmbxR4BGRr0G6nm9O
MB8GA1UdIwQYMBaAFBoNVjgWTBkvg1vK9hFfCB/2waaAMAkGA1UdEwQCMAAwDQYJ
KoZIhvcNAQELBQADggEBAJz89XlYdrsGoJIHURwoHNbPi1AR54c92kWC2XPTRWUE
7MaYRB7qr8WRXTKy7tzAo0nYGl8fijFSZIv2c88KPa4ZZxxLXpYVgu5+Z8gQoT5q
F+41Mn73Z9V7VVEm4bf8akRz8wKcy47QDVOkAuyliREMYNpt/4NLij6xzQoU25dn
jCkNVYYRgfUze1CtZIGZbL/zh5huMwZ1o28Hd5I9LsmxXQopMbLSBRuhhGUG2pdM
pAnhCIo/iBPkEgEFiipAWzT4UbeC65emkdabmJFm+bQXdXOrpALv6z6Rwuu+rZzt
0ijRdaChqK0uQV/NWrqKvsUYsdRSo3h+0u1dFQExeqc=
-----END CERTIFICATE-----
