-----BEGIN PRIVATE KEY-----
MIIEvQIBADANBgkqhkiG9w0BAQEFAASCBKcwggSjAgEAAoIBAQC9ksVUrfp/wmDo
qe2DBbvQWvedQRn9YZT09fE6VmaifrxeDrxCsTg6BMI+q4idcuGZi0TbHOPaTrd7
gd/JpuW0cygGvq1Td+WuTOYDhBzgGpHL/PS/RT8ASsuFqqbdCcbcJOEVtCOqq2pB
gbAN/CBJ//GQmGaNgifQjnYHCzyqLGK8hlsXP9NosWlK5kYlkj8FAdptcb+umxSi
VncIEn0Nxkr/8ctUBocKBmSqRcnTA0wXbxfTPKopw+kFVXxREGDhALTkYYv4rFaD
R1fMQ+KLwfYwxq6vlkNFSVFOJEORjUCZqD9FkAyDP4w6g5xwMz28DXn4f60+rkK+
awE7sWjLAgMBAAECggEAS2bcbDEDCNv0lbY5DTszl80G3hptzvWIPOKx/yUsj4df
Pv4XbWN13MXVyP2LSizOhLb7PTfBfSyAGHTw4REsHlkLW5tt71wqE+jsOAvNPGn1
AbDsXEObqm8VgmX9Fr/zw847ZNmQsiqaCdIeh4F4Clbt6zhi2fgiA/cWBPk4OOrc
jSCst4uAAIjbi9jcArq/kTXbZSg/immfSbOXw28P7ujdBsMnV6h1gxnDoH30dIS6
W7wQ1mqwpM/buHeJwxiwb7DL8aC5Npna7sxiZ43YYJ2alTpRdovIlTNdnXGmhipz
iDmnX38qkskSmvm3jbP5w2cu6u3gyPEv7Ps7FRQ50QKBgQDytBDDe5NyDW72il3f
E0bel263hkmUxz5iTdnQIDYB1m6buafvkhyd72MO04YZ8i6LuCmUnP9/L3+OP7Rn
1y2neKTtjmMWCDWm4LgXrNDBT+MmgY3RnRbvEJ2amt2RIGEfGu3WXZecGbaPmlvB
64ga2Z1zEE3SWBw/ke32UExN4wKBgQDH9Y1Po4ck46IaPVyS1lImb7OjLEKHmyaW
MKvlP4ieFJkuNnIabRfPwD6G6T7bkQjuSjYjJkFXVVw5TKJEHF36/1KAZVFZpu8s
PEg75ALybFYfbm9aR5EaeBnnxuVGSXKCjsEDaoD8yrnF37kMstnKYBYGjWcs3gHB
WlIf+3Bt+QKBgAdjWdtJiLyBEi6pGaBvysl93J3zlYvU4N5HNmkygdJef7F33lfZ
n8ti/SX3ZG6nw6j3KzTd7p0ligF/iPNcRoSBlKuymOuTxmZVEuWNmjE4SFbkvLdz
y73tSI7rRfFkBfDXdgP/h1z2H2uRrFdj3xnKJBPbnDLaAcohnBfSa/A3AoGBAMKB
w7ICOkXSAC9SHSjgvgyRf8ZsGVNbws86DRv1D2nmU5M2dwvprs3yDWCipvhiPrO9
EKhkYA8aA5nhR77FcU3k61XmOJni3qjDAujvRUaXx7bPcBX7o9SBm4FwYjpa277Q
KkSuZ0Z/1PH8TD9kAqLvkL1S81gbpM12lIhzx8vRAoGAKMPDb209uHoC66GpOxal
qNWjOzGv8l9jj3hzy+ZPuhrM86aLxAaLA0b5eYTgXqYH4kBL6CitzECQqHjJffUd
jzlrLLQvZ2Ni8/ur+rcJoOuS4aOde6mN/ZsX7VUSxG8JlyMw0Wup2+zEeP/pL+mH
XzvkqpTdYM1jeBFFA174TlQ=
-----END PRIVATE KEY-----
Certificate:
    Data:
        Version: 3 (0x2)
        Serial Number:
            c5:45:20:60:2e:5f:85:31
    Signature Algorithm: sha256WithRSAEncryption
        Issuer: C=XY, L=Castle Anthrax, O=Python Software Foundation CA, CN=our-ca-server
        Validity
            Not Before: May  2 08:39:33 2017 GMT
            Not After : Mar 11 08:39:33 2027 GMT
        Subject: C=XY, L=Castle Anthrax, O=Python Software Foundation, CN=fakehostname
        Subject Public Key Info:
            Public Key Algorithm: rsaEncryption
                Public-Key: (2048 bit)
                Modulus:
                    00:bd:92:c5:54:ad:fa:7f:c2:60:e8:a9:ed:83:05:
                    bb:d0:5a:f7:9d:41:19:fd:61:94:f4:f5:f1:3a:56:
                    66:a2:7e:bc:5e:0e:bc:42:b1:38:3a:04:c2:3e:ab:
                    88:9d:72:e1:99:8b:44:db:1c:e3:da:4e:b7:7b:81:
                    df:c9:a6:e5:b4:73:28:06:be:ad:53:77:e5:ae:4c:
                    e6:03:84:1c:e0:1a:91:cb:fc:f4:bf:45:3f:00:4a:
                    cb:85:aa:a6:dd:09:c6:dc:24:e1:15:b4:23:aa:ab:
                    6a:41:81:b0:0d:fc:20:49:ff:f1:90:98:66:8d:82:
                    27:d0:8e:76:07:0b:3c:aa:2c:62:bc:86:5b:17:3f:
                    d3:68:b1:69:4a:e6:46:25:92:3f:05:01:da:6d:71:
                    bf:ae:9b:14:a2:56:77:08:12:7d:0d:c6:4a:ff:f1:
                    cb:54:06:87:0a:06:64:aa:45:c9:d3:03:4c:17:6f:
                    17:d3:3c:aa:29:c3:e9:05:55:7c:51:10:60:e1:00:
                    b4:e4:61:8b:f8:ac:56:83:47:57:cc:43:e2:8b:c1:
                    f6:30:c6:ae:af:96:43:45:49:51:4e:24:43:91:8d:
                    40:99:a8:3f:45:90:0c:83:3f:8c:3a:83:9c:70:33:
                    3d:bc:0d:79:f8:7f:ad:3e:ae:42:be:6b:01:3b:b1:
                    68:cb
                Exponent: 65537 (0x10001)
        X509v3 extensions:
            X509v3 Subject Alternative Name: 
                DNS:fakehostname
            X509v3 Key Usage: critical
                Digital Signature, Key Encipherment
            X509v3 Extended Key Usage: 
                TLS Web Server Authentication, TLS Web Client Authentication
            X509v3 Subject Key Identifier: 
                4F:28:38:93:45:DE:7A:FE:12:F9:43:55:61:98:0B:E9:B8:E7:BC:31
            X509v3 Authority Key Identifier: 
                keyid:A4:45:EA:9F:D4:54:59:D2:E8:5F:B3:B9:7F:B6:8F:DA:22:4F:A3:0D

            X509v3 Basic Constraints: 
                CA:FALSE
    Signature Algorithm: sha256WithRSAEncryption
         3a:72:f1:cb:1c:9b:10:db:2b:b9:58:84:6d:58:e8:cf:82:7b:
         58:97:34:98:18:4c:9f:b6:60:4b:95:1b:97:d0:37:8f:5f:28:
         55:b4:79:9c:2c:42:d0:b8:54:9e:97:de:99:31:4f:0f:6f:7d:
         9c:4d:39:d8:44:c5:7f:d9:17:0a:cf:e7:b5:bc:28:0e:71:25:
         26:54:a6:8d:3f:6b:b2:59:f3:60:f0:9a:25:0a:8a:b2:3f:77:
         91:d8:3e:84:74:8e:d8:a4:91:79:a2:67:43:66:69:c1:5e:bb:
         82:98:75:0c:6e:d2:63:0b:27:f5:e6:ae:6b:a0:2d:05:67:58:
         5a:cb:41:7c:65:83:8a:90:22:c6:28:9d:29:d2:5c:7b:1e:8e:
         1a:63:b0:ad:ae:a3:45:98:79:0f:86:9b:22:f9:7a:c6:e0:78:
         a9:64:8b:1b:d1:16:47:e0:b6:de:01:14:6a:6b:28:8d:9d:83:
         ca:8d:08:7f:19:63:9d:8a:d4:13:03:52:16:61:c7:c9:3b:15:
         99:99:68:6a:5a:0a:5d:26:4a:e8:59:d5:ad:25:3e:78:5c:e0:
         19:12:bf:07:69:12:af:df:0a:27:1e:e4:ff:34:1a:d9:87:1b:
         ee:ad:9e:6d:42:fc:f9:7b:1c:35:b1:f3:a1:ac:77:bd:d8:62:
         05:37:5f:20
-----BEGIN CERTIFICATE-----
MIID4jCCAsqgAwIBAgIJAMVFIGAuX4UxMA0GCSqGSIb3DQEBCwUAMGYxCzAJBgNV
BAYTAlhZMRcwFQYDVQQHDA5DYXN0bGUgQW50aHJheDEmMCQGA1UECgwdUHl0aG9u
IFNvZnR3YXJlIEZvdW5kYXRpb24gQ0ExFjAUBgNVBAMMDW91ci1jYS1zZXJ2ZXIw
HhcNMTcwNTAyMDgzOTMzWhcNMjcwMzExMDgzOTMzWjBiMQswCQYDVQQGEwJYWTEX
MBUGA1UEBwwOQ2FzdGxlIEFudGhyYXgxIzAhBgNVBAoMGlB5dGhvbiBTb2Z0d2Fy
ZSBGb3VuZGF0aW9uMRUwEwYDVQQDDAxmYWtlaG9zdG5hbWUwggEiMA0GCSqGSIb3
DQEBAQUAA4IBDwAwggEKAoIBAQC9ksVUrfp/wmDoqe2DBbvQWvedQRn9YZT09fE6
VmaifrxeDrxCsTg6BMI+q4idcuGZi0TbHOPaTrd7gd/JpuW0cygGvq1Td+WuTOYD
hBzgGpHL/PS/RT8ASsuFqqbdCcbcJOEVtCOqq2pBgbAN/CBJ//GQmGaNgifQjnYH
CzyqLGK8hlsXP9NosWlK5kYlkj8FAdptcb+umxSiVncIEn0Nxkr/8ctUBocKBmSq
RcnTA0wXbxfTPKopw+kFVXxREGDhALTkYYv4rFaDR1fMQ+KLwfYwxq6vlkNFSVFO
JEORjUCZqD9FkAyDP4w6g5xwMz28DXn4f60+rkK+awE7sWjLAgMBAAGjgZYwgZMw
FwYDVR0RBBAwDoIMZmFrZWhvc3RuYW1lMA4GA1UdDwEB/wQEAwIFoDAdBgNVHSUE
FjAUBggrBgEFBQcDAQYIKwYBBQUHAwIwHQYDVR0OBBYEFE8oOJNF3nr+EvlDVWGY
C+m457wxMB8GA1UdIwQYMBaAFKRF6p/UVFnS6F+zuX+2j9oiT6MNMAkGA1UdEwQC
MAAwDQYJKoZIhvcNAQELBQADggEBADpy8cscmxDbK7lYhG1Y6M+Ce1iXNJgYTJ+2
YEuVG5fQN49fKFW0eZwsQtC4VJ6X3pkxTw9vfZxNOdhExX/ZFwrP57W8KA5xJSZU
po0/a7JZ82DwmiUKirI/d5HYPoR0jtikkXmiZ0NmacFeu4KYdQxu0mMLJ/Xmrmug
LQVnWFrLQXxlg4qQIsYonSnSXHsejhpjsK2uo0WYeQ+GmyL5esbgeKlkixvRFkfg
tt4BFGprKI2dg8qNCH8ZY52K1BMDUhZhx8k7FZmZaGpaCl0mSuhZ1a0lPnhc4BkS
vwdpEq/fCice5P80GtmHG+6tnm1C/Pl7HDWx86Gsd73YYgU3XyA=
-----END CERTIFICATE-----
