-----BEGIN PRIVATE KEY-----
MIIEvgIBADANBgkqhkiG9w0BAQEFAASCBKgwggSkAgEAAoIBAQDBQU9QYNSIQROn
41ya5qqx0Hpx/h2303/ORcNsT5aVjWgInMmIrYI9+G8QfisCUik/phF1awmWD25N
TJ4cf/I24Jiwmon8xE50+d3F5/0ifJ0zTDNlOdM7o+G5xSrCgU0lqrsqyzCfUhXt
oAvaPmNjFlB0ZYn44WAsoq7GD9erpFvJYXKL7osZefaw135i2dm06qz5hrNSPPNe
SxPtiOya1jf0UQ+fLSxWwosI/cZhCxDTdrCs7XqyYGTKo8UUo5XdlLcj1IFeAxUf
29D6QGA+ogILIdqUJFpmdwSEvi3pVcoNBqd7xLwsOhOeClpwyl6deKwMv7D49UdN
10Et45/7AgMBAAECggEAYKfTjXYAlm1F8XBLvsWjle+Zbi4Umv5TK83EogVkYUQq
RjR0r8FoJKp+khcoV67UJptenAV+8+if2FV7tvFfKYdHlvyUCzH7s5HNE9Cl0HvW
+/MeuYAkX+3lVc6BRmr5NN+hYRPjK6wYf5LOmscdWk+syaqHSU0flvN+ylzeF1/r
7B/B6GeErijJPUPwGKnWAGTpwjJtEXF6VNKJNgYT1RIssC+0XHB2pYO9tSp17bGz
jnxoBWw6Q30BWIOrFAqYFq2/3VNC9aOiSqlmcENl+M5m6/jQCXMP27jmxw8Keqo9
ElbwkjNsXWsdOpkOyuNVS+it3qkmxmjTCf+a4XNe8QKBgQDuNByTaJxLoQsLGCPt
gAyXIhfv3gWbZT3c7D5o1k+hrUINcfKkK+2RGCIxBGDdXWLXFiORqT5jBW0QfbZq
vEFrYot5mFmk+v4gHnT3EGFLqZhVyciGe6SvVcBpOCyg9pNMKuurMFTPT2MA0Zk6
7TKT9HjOz+iwMqEAnOLCWlq9TwKBgQDPsYNOMlI5TY9WREPO5ME+LrS7JW/yvCnP
jvysRgMPc+2n/9fU3rmPi5WQaoycGVtFQAz7es1J8Zdtz+UXzimeo2po3fIqfx2T
OHMqwDqo9Qls0Y6X6q0M54BOiqUQWRUP9Ylx1/j1BoTb7U37eoQ/0VzCbEFBmiSH
hj6LSHM/lQKBgQCn7YD/ws3820mnxpr9gjpeCaEKb2FQje0w5DOTQRLejgB07hH6
/yT6FyNznvyS0pUtwOPOepwKvvaGm7mQQat1AwIE9QytrGyfRBl9W8TbzHIieKCv
flc5bKC7DOkZiPuKxO9jvizsAbFwEFOQIUx41e6dDiGipe6vOer6zSwPLQKBgQCD
tgYYG+9q6ZXB1m7OEOG/pmz01cwFunAlcX8pXQjpztHjHWtpUomIz7Ncr0VWZPot
k23oOTtg7jXi7NlS3GomcWm08TN24cAGseDPNrK8nRCKEucDzk5KBbGnnWMKWAP0
Z/ju2lDGSokM05QFq++cbRAPOAm2KaOK0oZtW9fCdQKBgAQdpD7DbG05OxshPytf
Dr8S10u/Acr7B5oZVZCbl3qaaC/zxQffkMWN4LdEpuYPfbjQa1fyKnFvO+2+kPky
fbEPx7iAHopXrqrvXBzuUjaffEQAoJNn/saXJPiBl5MpNeFEN+/HOmDK5OqmO9xT
JaMpQJhY8J+1KxhkU0cKiQ/N
-----END PRIVATE KEY-----
Certificate:
    Data:
        Version: 3 (0x2)
        Serial Number:
            c5:45:20:60:2e:5f:85:30
    Signature Algorithm: sha256WithRSAEncryption
        Issuer: C=XY, L=Castle Anthrax, O=Python Software Foundation CA, CN=our-ca-server
        Validity
            Not Before: May  2 08:39:33 2017 GMT
            Not After : Mar 11 08:39:33 2027 GMT
        Subject: C=XY, L=Castle Anthrax, O=Python Software Foundation, CN=localhost
        Subject Public Key Info:
            Public Key Algorithm: rsaEncryption
                Public-Key: (2048 bit)
                Modulus:
                    00:c1:41:4f:50:60:d4:88:41:13:a7:e3:5c:9a:e6:
                    aa:b1:d0:7a:71:fe:1d:b7:d3:7f:ce:45:c3:6c:4f:
                    96:95:8d:68:08:9c:c9:88:ad:82:3d:f8:6f:10:7e:
                    2b:02:52:29:3f:a6:11:75:6b:09:96:0f:6e:4d:4c:
                    9e:1c:7f:f2:36:e0:98:b0:9a:89:fc:c4:4e:74:f9:
                    dd:c5:e7:fd:22:7c:9d:33:4c:33:65:39:d3:3b:a3:
                    e1:b9:c5:2a:c2:81:4d:25:aa:bb:2a:cb:30:9f:52:
                    15:ed:a0:0b:da:3e:63:63:16:50:74:65:89:f8:e1:
                    60:2c:a2:ae:c6:0f:d7:ab:a4:5b:c9:61:72:8b:ee:
                    8b:19:79:f6:b0:d7:7e:62:d9:d9:b4:ea:ac:f9:86:
                    b3:52:3c:f3:5e:4b:13:ed:88:ec:9a:d6:37:f4:51:
                    0f:9f:2d:2c:56:c2:8b:08:fd:c6:61:0b:10:d3:76:
                    b0:ac:ed:7a:b2:60:64:ca:a3:c5:14:a3:95:dd:94:
                    b7:23:d4:81:5e:03:15:1f:db:d0:fa:40:60:3e:a2:
                    02:0b:21:da:94:24:5a:66:77:04:84:be:2d:e9:55:
                    ca:0d:06:a7:7b:c4:bc:2c:3a:13:9e:0a:5a:70:ca:
                    5e:9d:78:ac:0c:bf:b0:f8:f5:47:4d:d7:41:2d:e3:
                    9f:fb
                Exponent: 65537 (0x10001)
        X509v3 extensions:
            X509v3 Subject Alternative Name: 
                DNS:localhost, IP Address:127.0.0.1, IP Address:0:0:0:0:0:0:0:1
            X509v3 Key Usage: critical
                Digital Signature, Key Encipherment
            X509v3 Extended Key Usage: 
                TLS Web Server Authentication, TLS Web Client Authentication
            X509v3 Subject Key Identifier: 
                00:3F:92:13:CB:4C:E1:E2:5C:BD:F9:07:F3:89:F1:A6:D2:19:2A:08
            X509v3 Authority Key Identifier: 
                keyid:A4:45:EA:9F:D4:54:59:D2:E8:5F:B3:B9:7F:B6:8F:DA:22:4F:A3:0D

            X509v3 Basic Constraints: 
                CA:FALSE
    Signature Algorithm: sha256WithRSAEncryption
         19:20:0e:62:40:d3:5b:0f:3f:1d:97:0d:4f:82:00:68:e8:52:
         0d:81:0e:bf:9d:66:3a:34:44:ea:f3:58:75:ff:a6:53:59:e3:
         7a:33:db:41:fe:cc:a4:ec:d8:33:85:75:a6:bf:b8:16:3c:55:
         64:2a:c4:63:56:ff:5c:e8:be:cd:f7:e0:f5:96:3b:22:b1:93:
         55:b7:79:b1:5b:32:e6:c9:84:ea:ad:e8:b6:b1:41:79:dd:cb:
         24:c0:66:3a:3b:18:f2:43:9f:21:08:2e:f0:37:6d:5a:2c:67:
         0f:cd:d1:09:c4:2b:18:63:bd:e1:a3:83:29:85:9d:82:b9:ee:
         27:ef:4f:33:c2:ca:b5:20:46:c7:3f:29:6b:8d:db:b1:92:9e:
         07:78:63:fb:9b:8d:5e:af:38:22:80:a1:70:e9:46:e7:8a:3e:
         dc:13:90:da:72:eb:2c:8d:f7:ca:51:ee:c6:ca:c0:1d:fc:0f:
         7d:72:5d:74:a6:1b:ae:13:38:8a:63:2f:86:31:1a:8b:b0:d7:
         eb:f9:98:c1:85:95:a3:aa:11:83:91:15:da:6d:1c:1f:de:f4:
         c6:71:5b:11:35:d4:f5:e0:38:df:9b:88:6c:8b:51:f1:b6:4c:
         03:4a:00:47:ad:00:13:2e:27:b6:c6:80:1c:b3:6e:04:6b:58:
         68:aa:fe:a5
-----BEGIN CERTIFICATE-----
MIID9DCCAtygAwIBAgIJAMVFIGAuX4UwMA0GCSqGSIb3DQEBCwUAMGYxCzAJBgNV
BAYTAlhZMRcwFQYDVQQHDA5DYXN0bGUgQW50aHJheDEmMCQGA1UECgwdUHl0aG9u
IFNvZnR3YXJlIEZvdW5kYXRpb24gQ0ExFjAUBgNVBAMMDW91ci1jYS1zZXJ2ZXIw
HhcNMTcwNTAyMDgzOTMzWhcNMjcwMzExMDgzOTMzWjBfMQswCQYDVQQGEwJYWTEX
MBUGA1UEBwwOQ2FzdGxlIEFudGhyYXgxIzAhBgNVBAoMGlB5dGhvbiBTb2Z0d2Fy
ZSBGb3VuZGF0aW9uMRIwEAYDVQQDDAlsb2NhbGhvc3QwggEiMA0GCSqGSIb3DQEB
AQUAA4IBDwAwggEKAoIBAQDBQU9QYNSIQROn41ya5qqx0Hpx/h2303/ORcNsT5aV
jWgInMmIrYI9+G8QfisCUik/phF1awmWD25NTJ4cf/I24Jiwmon8xE50+d3F5/0i
fJ0zTDNlOdM7o+G5xSrCgU0lqrsqyzCfUhXtoAvaPmNjFlB0ZYn44WAsoq7GD9er
pFvJYXKL7osZefaw135i2dm06qz5hrNSPPNeSxPtiOya1jf0UQ+fLSxWwosI/cZh
CxDTdrCs7XqyYGTKo8UUo5XdlLcj1IFeAxUf29D6QGA+ogILIdqUJFpmdwSEvi3p
VcoNBqd7xLwsOhOeClpwyl6deKwMv7D49UdN10Et45/7AgMBAAGjgaswgagwLAYD
VR0RBCUwI4IJbG9jYWxob3N0hwR/AAABhxAAAAAAAAAAAAAAAAAAAAABMA4GA1Ud
DwEB/wQEAwIFoDAdBgNVHSUEFjAUBggrBgEFBQcDAQYIKwYBBQUHAwIwHQYDVR0O
BBYEFAA/khPLTOHiXL35B/OJ8abSGSoIMB8GA1UdIwQYMBaAFKRF6p/UVFnS6F+z
uX+2j9oiT6MNMAkGA1UdEwQCMAAwDQYJKoZIhvcNAQELBQADggEBABkgDmJA01sP
Px2XDU+CAGjoUg2BDr+dZjo0ROrzWHX/plNZ43oz20H+zKTs2DOFdaa/uBY8VWQq
xGNW/1zovs334PWWOyKxk1W3ebFbMubJhOqt6LaxQXndyyTAZjo7GPJDnyEILvA3
bVosZw/N0QnEKxhjveGjgymFnYK57ifvTzPCyrUgRsc/KWuN27GSngd4Y/ubjV6v
OCKAoXDpRueKPtwTkNpy6yyN98pR7sbKwB38D31yXXSmG64TOIpjL4YxGouw1+v5
mMGFlaOqEYORFdptHB/e9MZxWxE11PXgON+biGyLUfG2TANKAEetABMuJ7bGgByz
bgRrWGiq/qU=
-----END CERTIFICATE-----
