Certificate:
    Data:
        Version: 3 (0x2)
        Serial Number:
            8d:e2:c4:c4:47:6f:2b:19
    Signature Algorithm: sha256WithRSAEncryption
        Issuer: C=XY, L=Castle Anthrax, O=Python Software Foundation CA, CN=our-ca-server
        Validity
            Not Before: May  2 09:30:14 2017 GMT
            Not After : Apr 30 09:30:14 2027 GMT
        Subject: C=XY, L=Castle Anthrax, O=Python Software Foundation CA, CN=our-ca-server
        Subject Public Key Info:
            Public Key Algorithm: rsaEncryption
                Public-Key: (2048 bit)
                Modulus:
                    00:e2:9d:52:a1:a8:58:5f:8f:15:85:ac:5f:c3:29:
                    d3:59:06:cc:df:36:84:c7:7f:d3:2d:02:75:91:b4:
                    13:76:02:2f:f4:20:ad:f1:71:6c:f6:1f:9c:76:e8:
                    b4:73:0f:8e:e0:55:58:e2:5a:98:f5:60:e7:f3:6a:
                    5a:a0:16:a7:ff:cb:d3:ce:3b:17:68:c6:19:e3:67:
                    5d:d6:c7:2c:97:c7:68:08:76:9f:4e:57:3a:25:2c:
                    5b:ed:76:ad:ae:9a:2c:74:78:98:9a:0f:a2:fd:93:
                    3f:6f:97:86:be:a0:75:13:8b:25:d1:54:1e:02:9f:
                    89:8f:0e:36:00:43:95:33:8b:f8:bc:f8:30:c6:26:
                    11:3c:1d:55:d5:0e:a0:1a:eb:a3:19:31:a6:9f:22:
                    e0:35:17:e8:9b:cc:14:bb:b8:2e:b2:d4:d7:bd:80:
                    7b:3e:d8:ea:68:6b:27:fc:95:36:b6:6a:6d:70:c9:
                    d1:37:bc:c8:80:21:d3:da:3b:a3:0b:81:29:e7:3b:
                    a7:d2:d8:7a:f5:02:86:ae:96:e9:85:98:7d:c8:83:
                    3b:b4:a4:a3:29:e1:4f:77:0b:d8:12:d5:13:a6:d0:
                    83:8f:93:75:29:9f:33:25:85:62:b8:d0:21:20:49:
                    ac:65:9f:a2:6b:9a:8c:e2:ce:b1:85:87:77:d0:54:
                    ca:1f
                Exponent: 65537 (0x10001)
        X509v3 extensions:
            X509v3 Key Usage: critical
                Certificate Sign, CRL Sign
            X509v3 Subject Key Identifier: 
                1A:0D:56:38:16:4C:19:2F:83:5B:CA:F6:11:5F:08:1F:F6:C1:A6:80
            X509v3 Authority Key Identifier: 
                keyid:1A:0D:56:38:16:4C:19:2F:83:5B:CA:F6:11:5F:08:1F:F6:C1:A6:80

            X509v3 Basic Constraints: 
                CA:TRUE
    Signature Algorithm: sha256WithRSAEncryption
         8b:75:2f:13:b7:24:19:b1:19:60:f6:d6:d8:04:79:d3:18:03:
         62:88:19:ad:cb:72:c7:a8:3a:7c:29:9b:26:5a:29:d5:ec:2d:
         58:3e:ee:de:4b:b7:07:e7:86:79:6f:73:2d:16:e1:f5:7b:cb:
         97:82:95:f9:14:5a:98:e8:04:e7:bd:9d:d3:ef:21:41:e0:a7:
         43:e3:15:e5:fe:62:99:7d:40:3e:31:b1:25:df:c9:9f:2b:de:
         c9:10:b4:38:34:ec:7f:da:33:9f:de:da:13:b8:49:71:de:c5:
         78:1c:5e:9b:19:46:d6:eb:cb:ca:00:b5:85:4c:87:21:7b:85:
         c7:aa:07:52:24:78:2b:7c:a3:0e:2a:4d:9a:34:f6:24:ef:4e:
         6d:cd:35:57:50:ee:29:44:cf:2a:54:ee:06:11:45:99:10:fd:
         aa:34:bf:9a:a1:0b:2d:ac:1c:91:6a:0c:37:96:a7:17:56:dc:
         58:7a:27:1d:05:43:ea:b4:54:46:cc:90:b5:9e:79:aa:27:11:
         91:81:21:0a:62:c9:1a:75:f1:d3:8e:c4:51:db:bd:4b:de:53:
         de:5f:d3:cc:a9:b4:b0:f1:b2:a7:7a:d5:8b:bb:a9:b1:09:3c:
         40:e7:71:61:9a:83:7f:1f:80:fb:21:0c:88:96:f4:72:68:6c:
         76:79:0c:5a
-----BEGIN CERTIFICATE-----
MIIDrzCCApegAwIBAgIJAI3ixMRHbysZMA0GCSqGSIb3DQEBCwUAMGYxCzAJBgNV
BAYTAlhZMRcwFQYDVQQHDA5DYXN0bGUgQW50aHJheDEmMCQGA1UECgwdUHl0aG9u
IFNvZnR3YXJlIEZvdW5kYXRpb24gQ0ExFjAUBgNVBAMMDW91ci1jYS1zZXJ2ZXIw
HhcNMTcwNTAyMDkzMDE0WhcNMjcwNDMwMDkzMDE0WjBmMQswCQYDVQQGEwJYWTEX
MBUGA1UEBwwOQ2FzdGxlIEFudGhyYXgxJjAkBgNVBAoMHVB5dGhvbiBTb2Z0d2Fy
ZSBGb3VuZGF0aW9uIENBMRYwFAYDVQQDDA1vdXItY2Etc2VydmVyMIIBIjANBgkq
hkiG9w0BAQEFAAOCAQ8AMIIBCgKCAQEA4p1SoahYX48VhaxfwynTWQbM3zaEx3/T
LQJ1kbQTdgIv9CCt8XFs9h+cdui0cw+O4FVY4lqY9WDn82paoBan/8vTzjsXaMYZ
42dd1scsl8doCHafTlc6JSxb7XatrposdHiYmg+i/ZM/b5eGvqB1E4sl0VQeAp+J
jw42AEOVM4v4vPgwxiYRPB1V1Q6gGuujGTGmnyLgNRfom8wUu7gustTXvYB7Ptjq
aGsn/JU2tmptcMnRN7zIgCHT2jujC4Ep5zun0th69QKGrpbphZh9yIM7tKSjKeFP
dwvYEtUTptCDj5N1KZ8zJYViuNAhIEmsZZ+ia5qM4s6xhYd30FTKHwIDAQABo2Aw
XjAOBgNVHQ8BAf8EBAMCAQYwHQYDVR0OBBYEFBoNVjgWTBkvg1vK9hFfCB/2waaA
MB8GA1UdIwQYMBaAFBoNVjgWTBkvg1vK9hFfCB/2waaAMAwGA1UdEwQFMAMBAf8w
DQYJKoZIhvcNAQELBQADggEBAIt1LxO3JBmxGWD21tgEedMYA2KIGa3LcseoOnwp
myZaKdXsLVg+7t5Ltwfnhnlvcy0W4fV7y5eClfkUWpjoBOe9ndPvIUHgp0PjFeX+
Ypl9QD4xsSXfyZ8r3skQtDg07H/aM5/e2hO4SXHexXgcXpsZRtbry8oAtYVMhyF7
hceqB1IkeCt8ow4qTZo09iTvTm3NNVdQ7ilEzypU7gYRRZkQ/ao0v5qhCy2sHJFq
DDeWpxdW3Fh6Jx0FQ+q0VEbMkLWeeaonEZGBIQpiyRp18dOOxFHbvUveU95f08yp
tLDxsqd61Yu7qbEJPEDncWGag38fgPshDIiW9HJobHZ5DFo=
-----END CERTIFICATE-----
