Certificate:
    Data:
        Version: 3 (0x2)
        Serial Number:
            c5:45:20:60:2e:5f:85:2f
    Signature Algorithm: sha256WithRSAEncryption
        Issuer: C=XY, L=Castle Anthrax, O=Python Software Foundation CA, CN=our-ca-server
        Validity
            Not Before: May  2 08:39:33 2017 GMT
            Not After : Apr 30 08:39:33 2027 GMT
        Subject: C=XY, L=Castle Anthrax, O=Python Software Foundation CA, CN=our-ca-server
        Subject Public Key Info:
            Public Key Algorithm: rsaEncryption
                Public-Key: (2048 bit)
                Modulus:
                    00:f7:ae:b0:b5:85:5c:62:87:29:9a:19:3e:84:cc:
                    c4:f5:c8:cc:bd:1d:5b:0d:6f:30:b6:37:e9:d7:ac:
                    fc:6e:1a:ba:60:d0:38:eb:0a:9e:e7:51:77:e1:69:
                    cd:79:ca:3a:0a:11:01:47:a7:7d:9b:46:a7:a3:b9:
                    e9:04:46:d3:cb:ef:4e:5a:37:b2:72:4c:c7:a8:72:
                    90:de:9f:9f:47:b3:7f:85:9a:54:7a:48:bf:64:59:
                    63:e7:8b:2d:82:76:7f:64:9a:98:09:da:de:b7:4a:
                    26:d5:fe:ca:0e:6a:d2:d7:60:04:c1:d7:24:8d:bb:
                    24:06:60:6a:27:84:01:19:8b:bc:3a:a0:18:90:9a:
                    1d:0d:98:ed:75:35:e6:fe:27:b5:42:1c:4e:2c:72:
                    9f:22:16:b5:08:17:31:c2:15:52:d5:86:db:44:f2:
                    be:62:32:e6:2e:27:d4:88:7f:de:f3:00:74:1c:9f:
                    e5:28:90:12:15:70:f8:70:7f:f8:53:17:b5:40:79:
                    2f:bb:c9:20:39:7c:20:7c:a0:2a:3d:cf:92:aa:8e:
                    6f:69:8e:16:32:ba:82:4f:b0:4f:f5:6c:45:0b:f8:
                    be:58:bb:4f:37:fd:6e:c6:ea:17:7f:1f:73:18:a5:
                    b7:e9:75:46:9f:33:2a:3b:54:22:f4:d3:1f:a5:11:
                    6f:59
                Exponent: 65537 (0x10001)
        X509v3 extensions:
            X509v3 Key Usage: critical
                Certificate Sign, CRL Sign
            X509v3 Subject Key Identifier: 
                A4:45:EA:9F:D4:54:59:D2:E8:5F:B3:B9:7F:B6:8F:DA:22:4F:A3:0D
            X509v3 Authority Key Identifier: 
                keyid:A4:45:EA:9F:D4:54:59:D2:E8:5F:B3:B9:7F:B6:8F:DA:22:4F:A3:0D

            X509v3 Basic Constraints: 
                CA:TRUE
    Signature Algorithm: sha256WithRSAEncryption
         74:c1:7a:35:86:76:67:48:ed:66:3a:4c:ec:d6:eb:81:7c:34:
         35:b0:7c:95:f0:de:98:09:68:f2:18:51:c5:71:14:21:93:3c:
         e1:63:a4:6d:bd:44:be:cd:aa:52:22:78:39:07:e5:bc:d6:21:
         c7:e3:81:f1:dc:02:47:0b:17:46:8a:48:a2:c4:c3:47:ae:97:
         74:76:eb:8b:ed:88:3a:7d:52:d5:ec:48:d3:ab:8b:20:0b:fe:
         f3:7b:8e:09:24:10:15:31:47:00:53:c1:ce:fe:57:d9:8a:20:
         e7:45:e9:04:31:d7:0a:65:7a:84:ee:4a:84:5b:39:b6:72:2b:
         3e:e8:e7:7c:ea:ca:72:ca:47:ec:f6:b5:eb:99:04:21:52:77:
         c2:d1:4e:3b:9f:f5:91:41:e1:3e:ef:1b:99:2c:61:3b:42:ca:
         75:41:93:1b:80:3d:ab:68:0d:65:e4:4d:d9:08:69:ba:88:d8:
         76:72:e3:c4:92:c9:e7:1b:6e:26:f5:b1:ca:2d:f8:74:1b:74:
         2a:ab:49:98:6a:48:56:77:97:d7:a6:28:9c:8f:80:cc:5d:31:
         b0:9b:e5:0d:5e:8a:37:55:23:03:5b:00:a7:bb:fa:65:3a:ce:
         5a:07:24:e2:cc:18:f6:3b:10:15:ab:a4:1a:24:38:7d:95:ed:
         4c:ca:52:7f
-----BEGIN CERTIFICATE-----
MIIDrzCCApegAwIBAgIJAMVFIGAuX4UvMA0GCSqGSIb3DQEBCwUAMGYxCzAJBgNV
BAYTAlhZMRcwFQYDVQQHDA5DYXN0bGUgQW50aHJheDEmMCQGA1UECgwdUHl0aG9u
IFNvZnR3YXJlIEZvdW5kYXRpb24gQ0ExFjAUBgNVBAMMDW91ci1jYS1zZXJ2ZXIw
HhcNMTcwNTAyMDgzOTMzWhcNMjcwNDMwMDgzOTMzWjBmMQswCQYDVQQGEwJYWTEX
MBUGA1UEBwwOQ2FzdGxlIEFudGhyYXgxJjAkBgNVBAoMHVB5dGhvbiBTb2Z0d2Fy
ZSBGb3VuZGF0aW9uIENBMRYwFAYDVQQDDA1vdXItY2Etc2VydmVyMIIBIjANBgkq
hkiG9w0BAQEFAAOCAQ8AMIIBCgKCAQEA966wtYVcYocpmhk+hMzE9cjMvR1bDW8w
tjfp16z8bhq6YNA46wqe51F34WnNeco6ChEBR6d9m0ano7npBEbTy+9OWjeyckzH
qHKQ3p+fR7N/hZpUeki/ZFlj54stgnZ/ZJqYCdret0om1f7KDmrS12AEwdckjbsk
BmBqJ4QBGYu8OqAYkJodDZjtdTXm/ie1QhxOLHKfIha1CBcxwhVS1YbbRPK+YjLm
LifUiH/e8wB0HJ/lKJASFXD4cH/4Uxe1QHkvu8kgOXwgfKAqPc+Sqo5vaY4WMrqC
T7BP9WxFC/i+WLtPN/1uxuoXfx9zGKW36XVGnzMqO1Qi9NMfpRFvWQIDAQABo2Aw
XjAOBgNVHQ8BAf8EBAMCAQYwHQYDVR0OBBYEFKRF6p/UVFnS6F+zuX+2j9oiT6MN
MB8GA1UdIwQYMBaAFKRF6p/UVFnS6F+zuX+2j9oiT6MNMAwGA1UdEwQFMAMBAf8w
DQYJKoZIhvcNAQELBQADggEBAHTBejWGdmdI7WY6TOzW64F8NDWwfJXw3pgJaPIY
UcVxFCGTPOFjpG29RL7NqlIieDkH5bzWIcfjgfHcAkcLF0aKSKLEw0eul3R264vt
iDp9UtXsSNOriyAL/vN7jgkkEBUxRwBTwc7+V9mKIOdF6QQx1wpleoTuSoRbObZy
Kz7o53zqynLKR+z2teuZBCFSd8LRTjuf9ZFB4T7vG5ksYTtCynVBkxuAPatoDWXk
TdkIabqI2HZy48SSyecbbib1scot+HQbdCqrSZhqSFZ3l9emKJyPgMxdMbCb5Q1e
ijdVIwNbAKe7+mU6zloHJOLMGPY7EBWrpBokOH2V7UzKUn8=
-----END CERTIFICATE-----
