-----BEGIN PRIVATE KEY-----
MIIEvAIBADANBgkqhkiG9w0BAQEFAASCBKYwggSiAgEAAoIBAQCqtbRlXMjmReb4
0sOplk2AIM2CtkihCbEh4mMWxLCLCh1etorMioNkFs7B3U62iT/2lYtNG3xb9aaw
BHgLeSA2ynrSZkWvRIQzOvDMMTNxekx1jgxwRidgJ5SiBQ4D/W4+57oC44VUP20n
PwYZR7RFPimxW7mVHxcXJ7fonq4whiDASlkIHxO+SK4yy5LCBQrZRJVLtJRD0z0l
OX9waC9eUswmah/Zd149xkXChWUWxf5muqesuTC1/grThOJR86L2GLZY6u5dY87W
soKFAbLo80DWiN7E+otNGCptwGlTzEVuANI4trTwG27vUPDJvQMpeuzG6RT05Sz+
Gn6ZTVM/AgMBAAECggEAdV8hfV/iMZF2UTZ4mS1ic+oZ4vl5zl9fjrCc+Jab271E
nE5d+Gx0EmksF1cWO6L6e4wujwGK659m0DcCYsERSRrGf8sZtnwheSfZUEuz1x4D
XAAixT8264HLS+q1zEB/gHjLCBlvHpHNduJ6Sv9mDwXCnNM4MjOCKMWCSUpw8aLn
gTan9ksHheO2LkCniTGc8bhPyQio0TIUp2ONNt7HqFrVl9qv+UwXh5gYyPeqUSXY
daddewgU7J0e9HRKPTRKdCj3JKaZBp9b0kUOumurs4os8TKVzG75b4NGAVZkN+Np
CDapSGLgM6CGL7zr47t6Xi+mIhmzR5e1MDgV3Ko6wQKBgQDR6hvzQKkOJdWQMQj3
feThQzpNWD3x13zM214rPFirWYycx4wzdcKLMxolVMnIRhRAp11J1BWX3i05DKz5
DcnqFyzKuIFAc30/Kvl2V3p7n80JhOyLksnznE3bJmdhSxOEo8d1rakf4ofmd6aC
6BSr3TSmVhNAfXX9NR5JrM2RxwKBgQDQMCk1pEPs0dunKlTVV2PfHoVaPLokA8j2
ocHCc9m17aAtZqMoKDBDZaqaF/cWr6aekkGOSGprqUkVfTH0wbp2FCW8x9qdRZhI
E7Vn5mJvN5JuVxcR3dRLbufd2n3WY5/0YN8cavygODo8OQRsYL2lNqDspLH8AEqj
1+iPbysyyQKBgDtgh2t1fNx9oz1YQXsQZ2+4voMmVM9V7v1bh/We6k391KJ8Z5Ie
21rYp6qrozA9cnkfXmoFzd3ZgN1EUqFYXycSSx9EtXrvsBvwIgRxljnl5++rY+XP
LcT1D6jP4ipJPEomscL9znswbtSoP7eDwmUi+0OZ0XRKiNeI8PpSIQv9AoGAHWpw
qC+pmVCdpKUKj4plhiUd2n4yHtyaDJ8WbY9I97e3pjKWYxoql5tJ27P/Kalv9X/c
22nH/6ZPuUWTRW4KFp0KJ/5lGUu4FJcUTrXyupwziHutusyJLo9hG6u/lAdHlpQJ
ck57m3fWYqP7yARzR2DMpCMxMtYntbbQGVQv2mECgYBaHWl8sMbLRauCis2guICI
XkN8RqV5XmssNKBhytn6UxAF6iNDiD4A/tGHJPzwBqFOCp8knZDZ+gwzbLh6zzWp
mnPaqdyKt1DzEDzaW56jeIq81LfFC7rdcnwtdMnjj00K7HTGYGabpjZ4q2+DBfnf
JSyHKWeSzh1K5kNqBM4CCQ==
-----END PRIVATE KEY-----
Certificate:
    Data:
        Version: 3 (0x2)
        Serial Number:
            8d:e2:c4:c4:47:6f:2b:1c
    Signature Algorithm: sha256WithRSAEncryption
        Issuer: C=XY, L=Castle Anthrax, O=Python Software Foundation CA, CN=our-ca-server
        Validity
            Not Before: May  2 09:30:14 2017 GMT
            Not After : Mar 11 09:30:14 2027 GMT
        Subject: C=XY, L=Castle Anthrax, O=Python Software Foundation, CN=SAN only
        Subject Public Key Info:
            Public Key Algorithm: rsaEncryption
                Public-Key: (2048 bit)
                Modulus:
                    00:aa:b5:b4:65:5c:c8:e6:45:e6:f8:d2:c3:a9:96:
                    4d:80:20:cd:82:b6:48:a1:09:b1:21:e2:63:16:c4:
                    b0:8b:0a:1d:5e:b6:8a:cc:8a:83:64:16:ce:c1:dd:
                    4e:b6:89:3f:f6:95:8b:4d:1b:7c:5b:f5:a6:b0:04:
                    78:0b:79:20:36:ca:7a:d2:66:45:af:44:84:33:3a:
                    f0:cc:31:33:71:7a:4c:75:8e:0c:70:46:27:60:27:
                    94:a2:05:0e:03:fd:6e:3e:e7:ba:02:e3:85:54:3f:
                    6d:27:3f:06:19:47:b4:45:3e:29:b1:5b:b9:95:1f:
                    17:17:27:b7:e8:9e:ae:30:86:20:c0:4a:59:08:1f:
                    13:be:48:ae:32:cb:92:c2:05:0a:d9:44:95:4b:b4:
                    94:43:d3:3d:25:39:7f:70:68:2f:5e:52:cc:26:6a:
                    1f:d9:77:5e:3d:c6:45:c2:85:65:16:c5:fe:66:ba:
                    a7:ac:b9:30:b5:fe:0a:d3:84:e2:51:f3:a2:f6:18:
                    b6:58:ea:ee:5d:63:ce:d6:b2:82:85:01:b2:e8:f3:
                    40:d6:88:de:c4:fa:8b:4d:18:2a:6d:c0:69:53:cc:
                    45:6e:00:d2:38:b6:b4:f0:1b:6e:ef:50:f0:c9:bd:
                    03:29:7a:ec:c6:e9:14:f4:e5:2c:fe:1a:7e:99:4d:
                    53:3f
                Exponent: 65537 (0x10001)
        X509v3 extensions:
            X509v3 Subject Alternative Name: 
                DNS:localhost, IP Address:127.0.0.1, IP Address:0:0:0:0:0:0:0:1
            X509v3 Key Usage: critical
                Digital Signature, Key Encipherment
            X509v3 Extended Key Usage: 
                TLS Web Server Authentication, TLS Web Client Authentication
            X509v3 Subject Key Identifier: 
                98:9F:CC:11:09:2C:9A:ED:EA:E1:9B:F2:A0:82:9D:55:E6:66:0B:C2
            X509v3 Authority Key Identifier: 
                keyid:1A:0D:56:38:16:4C:19:2F:83:5B:CA:F6:11:5F:08:1F:F6:C1:A6:80

            X509v3 Basic Constraints: 
                CA:FALSE
    Signature Algorithm: sha256WithRSAEncryption
         c5:66:c0:0c:8c:23:d4:76:60:d8:06:5c:07:1e:6c:d2:37:46:
         cf:cb:d2:8f:f4:1e:2e:a0:43:59:e9:e2:49:cf:c2:18:4b:2e:
         dd:49:9a:dc:65:55:6f:3f:b7:66:eb:91:68:45:ed:eb:16:e0:
         60:fb:b5:b3:f8:07:d9:b8:b2:c6:8d:da:de:a2:d2:fb:d2:fe:
         70:0b:3a:59:25:f3:9d:c2:33:63:8f:ab:12:ba:4a:72:43:6b:
         92:71:ce:c9:89:df:96:c4:29:af:cd:46:d6:5b:da:62:b9:be:
         6d:c4:0b:0c:b6:76:ff:e1:1e:76:80:b9:c6:df:df:32:1e:a3:
         c1:13:d1:58:d7:22:af:04:bd:8c:2b:fc:13:a2:ab:b4:35:4d:
         1a:4c:5f:75:74:33:40:fd:b3:df:de:45:51:80:6e:63:b3:b8:
         52:aa:3f:d2:1d:fe:42:58:b8:7a:b1:c2:d6:2f:d4:28:0a:4b:
         66:0c:fd:be:d4:f7:62:6e:16:a7:5a:ab:8a:34:cc:be:54:9b:
         5a:10:6a:52:2c:d4:58:b3:c6:8a:6b:ee:18:c2:7f:8c:4a:59:
         3f:43:ee:80:31:ad:9c:82:f1:82:41:c9:d6:21:47:a8:ac:f5:
         46:61:8f:25:a1:be:59:4b:ef:43:f1:d7:66:a7:ed:b1:ed:12:
         08:e6:7f:eb
-----BEGIN CERTIFICATE-----
MIID8zCCAtugAwIBAgIJAI3ixMRHbyscMA0GCSqGSIb3DQEBCwUAMGYxCzAJBgNV
BAYTAlhZMRcwFQYDVQQHDA5DYXN0bGUgQW50aHJheDEmMCQGA1UECgwdUHl0aG9u
IFNvZnR3YXJlIEZvdW5kYXRpb24gQ0ExFjAUBgNVBAMMDW91ci1jYS1zZXJ2ZXIw
HhcNMTcwNTAyMDkzMDE0WhcNMjcwMzExMDkzMDE0WjBeMQswCQYDVQQGEwJYWTEX
MBUGA1UEBwwOQ2FzdGxlIEFudGhyYXgxIzAhBgNVBAoMGlB5dGhvbiBTb2Z0d2Fy
ZSBGb3VuZGF0aW9uMREwDwYDVQQDDAhTQU4gb25seTCCASIwDQYJKoZIhvcNAQEB
BQADggEPADCCAQoCggEBAKq1tGVcyOZF5vjSw6mWTYAgzYK2SKEJsSHiYxbEsIsK
HV62isyKg2QWzsHdTraJP/aVi00bfFv1prAEeAt5IDbKetJmRa9EhDM68MwxM3F6
THWODHBGJ2AnlKIFDgP9bj7nugLjhVQ/bSc/BhlHtEU+KbFbuZUfFxcnt+ierjCG
IMBKWQgfE75IrjLLksIFCtlElUu0lEPTPSU5f3BoL15SzCZqH9l3Xj3GRcKFZRbF
/ma6p6y5MLX+CtOE4lHzovYYtljq7l1jztaygoUBsujzQNaI3sT6i00YKm3AaVPM
RW4A0ji2tPAbbu9Q8Mm9Ayl67MbpFPTlLP4afplNUz8CAwEAAaOBqzCBqDAsBgNV
HREEJTAjgglsb2NhbGhvc3SHBH8AAAGHEAAAAAAAAAAAAAAAAAAAAAEwDgYDVR0P
AQH/BAQDAgWgMB0GA1UdJQQWMBQGCCsGAQUFBwMBBggrBgEFBQcDAjAdBgNVHQ4E
FgQUmJ/MEQksmu3q4ZvyoIKdVeZmC8IwHwYDVR0jBBgwFoAUGg1WOBZMGS+DW8r2
EV8IH/bBpoAwCQYDVR0TBAIwADANBgkqhkiG9w0BAQsFAAOCAQEAxWbADIwj1HZg
2AZcBx5s0jdGz8vSj/QeLqBDWeniSc/CGEsu3Uma3GVVbz+3ZuuRaEXt6xbgYPu1
s/gH2biyxo3a3qLS+9L+cAs6WSXzncIzY4+rErpKckNrknHOyYnflsQpr81G1lva
Yrm+bcQLDLZ2/+EedoC5xt/fMh6jwRPRWNcirwS9jCv8E6KrtDVNGkxfdXQzQP2z
395FUYBuY7O4Uqo/0h3+Qli4erHC1i/UKApLZgz9vtT3Ym4Wp1qrijTMvlSbWhBq
UizUWLPGimvuGMJ/jEpZP0PugDGtnILxgkHJ1iFHqKz1RmGPJaG+WUvvQ/HXZqft
se0SCOZ/6w==
-----END CERTIFICATE-----
